target datalayout = "e-m:e-p270:32:32-p271:32:32-p272:64:64-i64:64-i128:128-f80:128-n8:16:32:64-S128"
target triple = "x86_64-pc-linux-gnu"

%struct._value_string = type { i32, ptr }
%struct.nat64_prefix_data = type { ptr, i8, i32 }

@.str.859 = private unnamed_addr constant [3 x i8] c"96\00", align 1

; Function Attrs: null_pointer_is_valid sspstrong uwtable
define internal void @nat64_prefix_uats_prefix_len_tostr_cb(ptr noundef %0, ptr noundef %1, ptr noundef %2, ptr noundef %3, ptr noundef %4) #0 {
  %6 = alloca ptr, align 8
  %7 = alloca ptr, align 8
  %8 = alloca ptr, align 8
  %9 = alloca ptr, align 8
  %10 = alloca ptr, align 8
  %11 = alloca i32, align 4
  %12 = alloca i32, align 4
  store ptr %0, ptr %6, align 8
  store ptr %1, ptr %7, align 8
  store ptr %2, ptr %8, align 8
  store ptr %3, ptr %9, align 8
  store ptr %4, ptr %10, align 8
  call void @llvm.lifetime.start.p0(i64 4, ptr %11) #15
  store i32 0, ptr %11, align 4
  br label %13

13:                                               ; preds = %48, %5
  %14 = load ptr, ptr %9, align 8
  %15 = load i32, ptr %11, align 4
  %16 = zext i32 %15 to i64
  %17 = getelementptr %struct._value_string, ptr %14, i64 %16
  %18 = getelementptr inbounds nuw %struct._value_string, ptr %17, i32 0, i32 1
  %19 = load ptr, ptr %18, align 8
  %20 = icmp ne ptr %19, null
  br i1 %20, label %21, label %51

21:                                               ; preds = %13
  %22 = load ptr, ptr %9, align 8
  %23 = load i32, ptr %11, align 4
  %24 = zext i32 %23 to i64
  %25 = getelementptr %struct._value_string, ptr %22, i64 %24
  %26 = getelementptr inbounds nuw %struct._value_string, ptr %25, i32 0, i32 0
  %27 = load i32, ptr %26, align 8
  %28 = load ptr, ptr %6, align 8
  %29 = getelementptr inbounds nuw %struct.nat64_prefix_data, ptr %28, i32 0, i32 1
  %30 = load i8, ptr %29, align 8
  %31 = zext i8 %30 to i32
  %32 = icmp eq i32 %27, %31
  br i1 %32, label %33, label %47

33:                                               ; preds = %21
  %34 = load ptr, ptr %9, align 8
  %35 = load i32, ptr %11, align 4
  %36 = zext i32 %35 to i64
  %37 = getelementptr %struct._value_string, ptr %34, i64 %36
  %38 = getelementptr inbounds nuw %struct._value_string, ptr %37, i32 0, i32 1
  %39 = load ptr, ptr %38, align 8
  %40 = call noalias ptr @g_strdup(ptr noundef %39)
  %41 = load ptr, ptr %7, align 8
  store ptr %40, ptr %41, align 8
  %42 = load ptr, ptr %7, align 8
  %43 = load ptr, ptr %42, align 8
  %44 = call i64 @strlen(ptr noundef %43) #17
  %45 = trunc i64 %44 to i32
  %46 = load ptr, ptr %8, align 8
  store i32 %45, ptr %46, align 4
  store i32 1, ptr %12, align 4
  br label %55

47:                                               ; preds = %21
  br label %48

48:                                               ; preds = %47
  %49 = load i32, ptr %11, align 4
  %50 = add i32 %49, 1
  store i32 %50, ptr %11, align 4
  br label %13, !llvm.loop !10

51:                                               ; preds = %13
  %52 = call noalias ptr @g_strdup(ptr noundef @.str.859)
  %53 = load ptr, ptr %7, align 8
  store ptr %52, ptr %53, align 8
  %54 = load ptr, ptr %8, align 8
  store i32 2, ptr %54, align 4
  store i32 0, ptr %12, align 4
  br label %55

55:                                               ; preds = %51, %33
  call void @llvm.lifetime.end.p0(i64 4, ptr %11) #15
  %56 = load i32, ptr %12, align 4
  switch i32 %56, label %58 [
    i32 0, label %57
    i32 1, label %57
  ]

57:                                               ; preds = %55, %55
  ret void

58:                                               ; preds = %55
  unreachable
}